target datalayout = "e-m:e-p270:32:32-p271:32:32-p272:64:64-i64:64-i128:128-f80:128-n8:16:32:64-S128"
target triple = "x86_64-pc-linux-gnu"

%struct.ItemPointerData = type { %struct.BlockIdData, i16 }
%struct.BlockIdData = type { i16, i16 }
%struct.IndexScanDescData = type { ptr, ptr, ptr, i32, i32, ptr, ptr, i8, i8, i8, i8, i8, ptr, ptr, ptr, ptr, ptr, %struct.ItemPointerData, i8, ptr, i8, ptr, ptr, i8, ptr }
%struct.pendingPosition = type { i32, i16, i16, %struct.ItemPointerData, ptr }
%struct.PageHeaderData = type { %struct.PageXLogRecPtr, i16, i16, i16, i16, i16, i16, i32, [0 x %struct.ItemIdData] }
%struct.PageXLogRecPtr = type { i32, i32 }
%struct.ItemIdData = type { i32 }
%struct.GinPageOpaqueData = type { i32, i16, i16 }
%struct.IndexTupleData = type { %struct.ItemPointerData, i16 }

@LocalBufferBlockPointers = external global ptr, align 8
@BufferBlocks = external global ptr, align 8

; Function Attrs: inlinehint nounwind uwtable
define internal ptr @BufferGetBlock(i32 noundef %0) #3 {
  %2 = alloca ptr, align 8
  %3 = alloca i32, align 4
  store i32 %0, ptr %3, align 4
  %4 = load i32, ptr %3, align 4
  %5 = icmp slt i32 %4, 0
  br i1 %5, label %6, label %14

6:                                                ; preds = %1
  %7 = load ptr, ptr @LocalBufferBlockPointers, align 8
  %8 = load i32, ptr %3, align 4
  %9 = sub i32 0, %8
  %10 = sub i32 %9, 1
  %11 = sext i32 %10 to i64
  %12 = getelementptr inbounds ptr, ptr %7, i64 %11
  %13 = load ptr, ptr %12, align 8
  store ptr %13, ptr %2, align 8
  br label %21

14:                                               ; preds = %1
  %15 = load ptr, ptr @BufferBlocks, align 8
  %16 = load i32, ptr %3, align 4
  %17 = sub i32 %16, 1
  %18 = sext i32 %17 to i64
  %19 = mul i64 %18, 8192
  %20 = getelementptr inbounds nuw i8, ptr %15, i64 %19
  store ptr %20, ptr %2, align 8
  br label %21

21:                                               ; preds = %14, %6
  %22 = load ptr, ptr %2, align 8
  ret ptr %22
}

; Function Attrs: inlinehint nounwind uwtable
define internal void @BlockIdSet(ptr noundef %0, i32 noundef %1) #3 {
  %3 = alloca ptr, align 8
  %4 = alloca i32, align 4
  store ptr %0, ptr %3, align 8
  store i32 %1, ptr %4, align 4
  %5 = load i32, ptr %4, align 4
  %6 = lshr i32 %5, 16
  %7 = trunc i32 %6 to i16
  %8 = load ptr, ptr %3, align 8
  %9 = getelementptr inbounds nuw %struct.BlockIdData, ptr %8, i32 0, i32 0
  store i16 %7, ptr %9, align 2
  %10 = load i32, ptr %4, align 4
  %11 = and i32 %10, 65535
  %12 = trunc i32 %11 to i16
  %13 = load ptr, ptr %3, align 8
  %14 = getelementptr inbounds nuw %struct.BlockIdData, ptr %13, i32 0, i32 1
  store i16 %12, ptr %14, align 2
  ret void
}

; Function Attrs: inlinehint nounwind uwtable
define internal ptr @PageGetItem(ptr noundef %0, ptr noundef %1) #3 {
  %3 = alloca ptr, align 8
  %4 = alloca ptr, align 8
  store ptr %0, ptr %3, align 8
  store ptr %1, ptr %4, align 8
  %5 = load ptr, ptr %3, align 8
  %6 = load ptr, ptr %4, align 8
  %7 = load i32, ptr %6, align 4
  %8 = and i32 %7, 32767
  %9 = sext i32 %8 to i64
  %10 = getelementptr inbounds i8, ptr %5, i64 %9
  ret ptr %10
}

; Function Attrs: inlinehint nounwind uwtable
define internal ptr @PageGetItemId(ptr noundef %0, i16 noundef zeroext %1) #3 {
  %3 = alloca ptr, align 8
  %4 = alloca i16, align 2
  store ptr %0, ptr %3, align 8
  store i16 %1, ptr %4, align 2
  %5 = load ptr, ptr %3, align 8
  %6 = getelementptr inbounds nuw %struct.PageHeaderData, ptr %5, i32 0, i32 8
  %7 = load i16, ptr %4, align 2
  %8 = zext i16 %7 to i32
  %9 = sub i32 %8, 1
  %10 = sext i32 %9 to i64
  %11 = getelementptr inbounds [0 x %struct.ItemIdData], ptr %6, i64 0, i64 %10
  ret ptr %11
}

; Function Attrs: inlinehint nounwind uwtable
define internal void @PageValidateSpecialPointer(ptr noundef %0) #3 {
  %2 = alloca ptr, align 8
  store ptr %0, ptr %2, align 8
  ret void
}

; Function Attrs: inlinehint nounwind uwtable
define internal zeroext i16 @PageGetMaxOffsetNumber(ptr noundef %0) #3 {
  %2 = alloca i16, align 2
  %3 = alloca ptr, align 8
  %4 = alloca ptr, align 8
  %5 = alloca i32, align 4
  store ptr %0, ptr %3, align 8
  call void @llvm.lifetime.start.p0(i64 8, ptr %4) #8
  %6 = load ptr, ptr %3, align 8
  store ptr %6, ptr %4, align 8
  %7 = load ptr, ptr %4, align 8
  %8 = getelementptr inbounds nuw %struct.PageHeaderData, ptr %7, i32 0, i32 3
  %9 = load i16, ptr %8, align 4
  %10 = zext i16 %9 to i64
  %11 = icmp ule i64 %10, 24
  br i1 %11, label %12, label %13

12:                                               ; preds = %1
  store i16 0, ptr %2, align 2
  store i32 1, ptr %5, align 4
  br label %21

13:                                               ; preds = %1
  %14 = load ptr, ptr %4, align 8
  %15 = getelementptr inbounds nuw %struct.PageHeaderData, ptr %14, i32 0, i32 3
  %16 = load i16, ptr %15, align 4
  %17 = zext i16 %16 to i64
  %18 = sub i64 %17, 24
  %19 = udiv i64 %18, 4
  %20 = trunc i64 %19 to i16
  store i16 %20, ptr %2, align 2
  store i32 1, ptr %5, align 4
  br label %21

21:                                               ; preds = %13, %12
  call void @llvm.lifetime.end.p0(i64 8, ptr %4) #8
  %22 = load i16, ptr %2, align 2
  ret i16 %22
}

; Function Attrs: inlinehint nounwind uwtable
define internal ptr @BufferGetPage(i32 noundef %0) #3 {
  %2 = alloca i32, align 4
  store i32 %0, ptr %2, align 4
  %3 = load i32, ptr %2, align 4
  %4 = call ptr @BufferGetBlock(i32 noundef %3)
  ret ptr %4
}

; Function Attrs: inlinehint nounwind uwtable
define internal void @ItemPointerSetInvalid(ptr noundef %0) #3 {
  %2 = alloca ptr, align 8
  store ptr %0, ptr %2, align 8
  %3 = load ptr, ptr %2, align 8
  %4 = getelementptr inbounds nuw %struct.ItemPointerData, ptr %3, i32 0, i32 0
  call void @BlockIdSet(ptr noundef %4, i32 noundef -1)
  %5 = load ptr, ptr %2, align 8
  %6 = getelementptr inbounds nuw %struct.ItemPointerData, ptr %5, i32 0, i32 1
  store i16 0, ptr %6, align 2
  ret void
}

; Function Attrs: nounwind uwtable
define internal zeroext i1 @scanGetCandidate(ptr noundef %0, ptr noundef %1) #0 {
  %3 = alloca i1, align 1
  %4 = alloca ptr, align 8
  %5 = alloca ptr, align 8
  %6 = alloca i16, align 2
  %7 = alloca ptr, align 8
  %8 = alloca ptr, align 8
  %9 = alloca i32, align 4
  %10 = alloca i32, align 4
  %11 = alloca i32, align 4
  store ptr %0, ptr %4, align 8
  store ptr %1, ptr %5, align 8
  call void @llvm.lifetime.start.p0(i64 2, ptr %6) #8
  call void @llvm.lifetime.start.p0(i64 8, ptr %7) #8
  call void @llvm.lifetime.start.p0(i64 8, ptr %8) #8
  %12 = load ptr, ptr %5, align 8
  %13 = getelementptr inbounds nuw %struct.pendingPosition, ptr %12, i32 0, i32 3
  call void @ItemPointerSetInvalid(ptr noundef %13)
  br label %14

14:                                               ; preds = %137, %2
  %15 = load ptr, ptr %5, align 8
  %16 = getelementptr inbounds nuw %struct.pendingPosition, ptr %15, i32 0, i32 0
  %17 = load i32, ptr %16, align 8
  %18 = call ptr @BufferGetPage(i32 noundef %17)
  store ptr %18, ptr %7, align 8
  %19 = load ptr, ptr %7, align 8
  %20 = call zeroext i16 @PageGetMaxOffsetNumber(ptr noundef %19)
  store i16 %20, ptr %6, align 2
  %21 = load ptr, ptr %5, align 8
  %22 = getelementptr inbounds nuw %struct.pendingPosition, ptr %21, i32 0, i32 1
  %23 = load i16, ptr %22, align 4
  %24 = zext i16 %23 to i32
  %25 = load i16, ptr %6, align 2
  %26 = zext i16 %25 to i32
  %27 = icmp sgt i32 %24, %26
  br i1 %27, label %28, label %66

28:                                               ; preds = %14
  call void @llvm.lifetime.start.p0(i64 4, ptr %9) #8
  %29 = load ptr, ptr %7, align 8
  call void @PageValidateSpecialPointer(ptr noundef %29)
  %30 = load ptr, ptr %7, align 8
  %31 = load ptr, ptr %7, align 8
  %32 = getelementptr inbounds nuw %struct.PageHeaderData, ptr %31, i32 0, i32 5
  %33 = load i16, ptr %32, align 4
  %34 = zext i16 %33 to i32
  %35 = sext i32 %34 to i64
  %36 = getelementptr inbounds i8, ptr %30, i64 %35
  %37 = getelementptr inbounds nuw %struct.GinPageOpaqueData, ptr %36, i32 0, i32 0
  %38 = load i32, ptr %37, align 4
  store i32 %38, ptr %9, align 4
  %39 = load i32, ptr %9, align 4
  %40 = icmp eq i32 %39, -1
  br i1 %40, label %41, label %47

41:                                               ; preds = %28
  %42 = load ptr, ptr %5, align 8
  %43 = getelementptr inbounds nuw %struct.pendingPosition, ptr %42, i32 0, i32 0
  %44 = load i32, ptr %43, align 8
  call void @UnlockReleaseBuffer(i32 noundef %44)
  %45 = load ptr, ptr %5, align 8
  %46 = getelementptr inbounds nuw %struct.pendingPosition, ptr %45, i32 0, i32 0
  store i32 0, ptr %46, align 8
  store i1 false, ptr %3, align 1
  store i32 1, ptr %10, align 4
  br label %63

47:                                               ; preds = %28
  call void @llvm.lifetime.start.p0(i64 4, ptr %11) #8
  %48 = load ptr, ptr %4, align 8
  %49 = getelementptr inbounds nuw %struct.IndexScanDescData, ptr %48, i32 0, i32 1
  %50 = load ptr, ptr %49, align 8
  %51 = load i32, ptr %9, align 4
  %52 = call i32 @ReadBuffer(ptr noundef %50, i32 noundef %51)
  store i32 %52, ptr %11, align 4
  %53 = load i32, ptr %11, align 4
  call void @LockBuffer(i32 noundef %53, i32 noundef 1)
  %54 = load ptr, ptr %5, align 8
  %55 = getelementptr inbounds nuw %struct.pendingPosition, ptr %54, i32 0, i32 0
  %56 = load i32, ptr %55, align 8
  call void @UnlockReleaseBuffer(i32 noundef %56)
  %57 = load i32, ptr %11, align 4
  %58 = load ptr, ptr %5, align 8
  %59 = getelementptr inbounds nuw %struct.pendingPosition, ptr %58, i32 0, i32 0
  store i32 %57, ptr %59, align 8
  %60 = load ptr, ptr %5, align 8
  %61 = getelementptr inbounds nuw %struct.pendingPosition, ptr %60, i32 0, i32 1
  store i16 1, ptr %61, align 4
  call void @llvm.lifetime.end.p0(i64 4, ptr %11) #8
  br label %62

62:                                               ; preds = %47
  store i32 0, ptr %10, align 4
  br label %63

63:                                               ; preds = %62, %41
  call void @llvm.lifetime.end.p0(i64 4, ptr %9) #8
  %64 = load i32, ptr %10, align 4
  switch i32 %64, label %139 [
    i32 0, label %65
  ]

65:                                               ; preds = %63
  br label %137

66:                                               ; preds = %14
  %67 = load ptr, ptr %7, align 8
  %68 = load ptr, ptr %7, align 8
  %69 = load ptr, ptr %5, align 8
  %70 = getelementptr inbounds nuw %struct.pendingPosition, ptr %69, i32 0, i32 1
  %71 = load i16, ptr %70, align 4
  %72 = call ptr @PageGetItemId(ptr noundef %68, i16 noundef zeroext %71)
  %73 = call ptr @PageGetItem(ptr noundef %67, ptr noundef %72)
  store ptr %73, ptr %8, align 8
  %74 = load ptr, ptr %5, align 8
  %75 = getelementptr inbounds nuw %struct.pendingPosition, ptr %74, i32 0, i32 3
  %76 = load ptr, ptr %8, align 8
  %77 = getelementptr inbounds nuw %struct.IndexTupleData, ptr %76, i32 0, i32 0
  call void @llvm.memcpy.p0.p0.i64(ptr align 8 %75, ptr align 2 %77, i64 6, i1 false)
  %78 = load ptr, ptr %7, align 8
  call void @PageValidateSpecialPointer(ptr noundef %78)
  %79 = load ptr, ptr %7, align 8
  %80 = load ptr, ptr %7, align 8
  %81 = getelementptr inbounds nuw %struct.PageHeaderData, ptr %80, i32 0, i32 5
  %82 = load i16, ptr %81, align 4
  %83 = zext i16 %82 to i32
  %84 = sext i32 %83 to i64
  %85 = getelementptr inbounds i8, ptr %79, i64 %84
  %86 = getelementptr inbounds nuw %struct.GinPageOpaqueData, ptr %85, i32 0, i32 2
  %87 = load i16, ptr %86, align 2
  %88 = zext i16 %87 to i32
  %89 = and i32 %88, 32
  %90 = icmp ne i32 %89, 0
  br i1 %90, label %91, label %129

91:                                               ; preds = %66
  %92 = load ptr, ptr %5, align 8
  %93 = getelementptr inbounds nuw %struct.pendingPosition, ptr %92, i32 0, i32 1
  %94 = load i16, ptr %93, align 4
  %95 = zext i16 %94 to i32
  %96 = add i32 %95, 1
  %97 = trunc i32 %96 to i16
  %98 = load ptr, ptr %5, align 8
  %99 = getelementptr inbounds nuw %struct.pendingPosition, ptr %98, i32 0, i32 2
  store i16 %97, ptr %99, align 2
  br label %100

100:                                              ; preds = %123, %91
  %101 = load ptr, ptr %5, align 8
  %102 = getelementptr inbounds nuw %struct.pendingPosition, ptr %101, i32 0, i32 2
  %103 = load i16, ptr %102, align 2
  %104 = zext i16 %103 to i32
  %105 = load i16, ptr %6, align 2
  %106 = zext i16 %105 to i32
  %107 = icmp sle i32 %104, %106
  br i1 %107, label %108, label %128

108:                                              ; preds = %100
  %109 = load ptr, ptr %7, align 8
  %110 = load ptr, ptr %7, align 8
  %111 = load ptr, ptr %5, align 8
  %112 = getelementptr inbounds nuw %struct.pendingPosition, ptr %111, i32 0, i32 2
  %113 = load i16, ptr %112, align 2
  %114 = call ptr @PageGetItemId(ptr noundef %110, i16 noundef zeroext %113)
  %115 = call ptr @PageGetItem(ptr noundef %109, ptr noundef %114)
  store ptr %115, ptr %8, align 8
  %116 = load ptr, ptr %5, align 8
  %117 = getelementptr inbounds nuw %struct.pendingPosition, ptr %116, i32 0, i32 3
  %118 = load ptr, ptr %8, align 8
  %119 = getelementptr inbounds nuw %struct.IndexTupleData, ptr %118, i32 0, i32 0
  %120 = call zeroext i1 @ItemPointerEquals(ptr noundef %117, ptr noundef %119)
  br i1 %120, label %122, label %121

121:                                              ; preds = %108
  br label %128

122:                                              ; preds = %108
  br label %123

123:                                              ; preds = %122
  %124 = load ptr, ptr %5, align 8
  %125 = getelementptr inbounds nuw %struct.pendingPosition, ptr %124, i32 0, i32 2
  %126 = load i16, ptr %125, align 2
  %127 = add i16 %126, 1
  store i16 %127, ptr %125, align 2
  br label %100, !llvm.loop !16

128:                                              ; preds = %121, %100
  br label %136

129:                                              ; preds = %66
  %130 = load i16, ptr %6, align 2
  %131 = zext i16 %130 to i32
  %132 = add i32 %131, 1
  %133 = trunc i32 %132 to i16
  %134 = load ptr, ptr %5, align 8
  %135 = getelementptr inbounds nuw %struct.pendingPosition, ptr %134, i32 0, i32 2
  store i16 %133, ptr %135, align 2
  br label %136

136:                                              ; preds = %129, %128
  br label %138

137:                                              ; preds = %65
  br label %14

138:                                              ; preds = %136
  store i1 true, ptr %3, align 1
  store i32 1, ptr %10, align 4
  br label %139

139:                                              ; preds = %138, %63
  call void @llvm.lifetime.end.p0(i64 8, ptr %8) #8
  call void @llvm.lifetime.end.p0(i64 8, ptr %7) #8
  call void @llvm.lifetime.end.p0(i64 2, ptr %6) #8
  %140 = load i1, ptr %3, align 1
  ret i1 %140
}