; Function Attrs: nounwind uwtable
define internal fastcc noundef zeroext i1 @scanGetCandidate(ptr noundef readonly captures(none) %0, ptr noundef nonnull initializes((8, 14)) %1) unnamed_addr #0 {
  %3 = getelementptr inbounds nuw i8, ptr %1, i64 8
  store i16 -1, ptr %3, align 2
  %4 = getelementptr inbounds nuw i8, ptr %1, i64 10
  store i16 -1, ptr %4, align 2
  %5 = getelementptr inbounds nuw i8, ptr %1, i64 12
  store i16 0, ptr %5, align 2
  %.pr = load i32, ptr %1, align 8
  %6 = getelementptr inbounds nuw i8, ptr %1, i64 4
  %7 = getelementptr inbounds nuw i8, ptr %0, i64 8
  br label %8

8:                                                ; preds = %36, %2
  %9 = phi i32 [ %38, %36 ], [ %.pr, %2 ]
  %10 = icmp slt i32 %9, 0
  br i1 %10, label %11, label %17

11:                                               ; preds = %8
  %12 = load ptr, ptr @LocalBufferBlockPointers, align 8
  %13 = xor i32 %9, -1
  %14 = zext nneg i32 %13 to i64
  %15 = getelementptr inbounds nuw ptr, ptr %12, i64 %14
  %16 = load ptr, ptr %15, align 8
  br label %BufferGetPage.exit

17:                                               ; preds = %8
  %18 = load ptr, ptr @BufferBlocks, align 8
  %19 = add nsw i32 %9, -1
  %20 = sext i32 %19 to i64
  %21 = shl nsw i64 %20, 13
  %22 = getelementptr inbounds nuw i8, ptr %18, i64 %21
  br label %BufferGetPage.exit

BufferGetPage.exit:                               ; preds = %11, %17
  %.0.i.i = phi ptr [ %16, %11 ], [ %22, %17 ]
  %23 = getelementptr i8, ptr %.0.i.i, i64 12
  %.val = load i16, ptr %23, align 4
  %24 = icmp ult i16 %.val, 25
  %25 = zext i16 %.val to i32
  %26 = add nuw nsw i32 %25, 262120
  %27 = lshr i32 %26, 2
  %28 = trunc i32 %27 to i16
  %.0.i = select i1 %24, i16 0, i16 %28
  %29 = load i16, ptr %6, align 4
  %.not55.not.not.not.not = icmp ule i16 %29, %.0.i
  br i1 %.not55.not.not.not.not, label %40, label %30

30:                                               ; preds = %BufferGetPage.exit
  %31 = getelementptr inbounds nuw i8, ptr %.0.i.i, i64 16
  %32 = load i16, ptr %31, align 4
  %33 = zext i16 %32 to i64
  %34 = getelementptr inbounds nuw i8, ptr %.0.i.i, i64 %33
  %35 = load i32, ptr %34, align 4
  %.not43 = icmp eq i32 %35, -1
  br i1 %.not43, label %.thread, label %36

.thread:                                          ; preds = %30
  tail call void @UnlockReleaseBuffer(i32 noundef %9) #9
  store i32 0, ptr %1, align 8
  br label %.loopexit

36:                                               ; preds = %30
  %37 = load ptr, ptr %7, align 8
  %38 = tail call i32 @ReadBuffer(ptr noundef %37, i32 noundef %35) #9
  tail call void @LockBuffer(i32 noundef %38, i32 noundef 1) #9
  %39 = load i32, ptr %1, align 8
  tail call void @UnlockReleaseBuffer(i32 noundef %39) #9
  store i32 %38, ptr %1, align 8
  store i16 1, ptr %6, align 4
  br label %8

40:                                               ; preds = %BufferGetPage.exit
  %41 = getelementptr inbounds nuw i8, ptr %.0.i.i, i64 24
  %42 = zext i16 %29 to i64
  %43 = add nsw i64 %42, -1
  %44 = getelementptr inbounds [0 x %struct.ItemIdData], ptr %41, i64 0, i64 %43
  %.val44 = load i32, ptr %44, align 4
  %45 = and i32 %.val44, 32767
  %46 = zext nneg i32 %45 to i64
  %47 = getelementptr inbounds nuw i8, ptr %.0.i.i, i64 %46
  tail call void @llvm.memcpy.p0.p0.i64(ptr noundef nonnull align 8 dereferenceable(6) %3, ptr noundef nonnull align 2 dereferenceable(6) %47, i64 6, i1 false)
  %48 = getelementptr inbounds nuw i8, ptr %.0.i.i, i64 16
  %49 = load i16, ptr %48, align 4
  %50 = zext i16 %49 to i64
  %51 = getelementptr inbounds nuw i8, ptr %.0.i.i, i64 %50
  %52 = getelementptr inbounds nuw i8, ptr %51, i64 6
  %53 = load i16, ptr %52, align 2
  %54 = and i16 %53, 32
  %.not = icmp eq i16 %54, 0
  br i1 %.not, label %66, label %55

55:                                               ; preds = %40
  %56 = getelementptr inbounds nuw i8, ptr %1, i64 6
  br label %57

57:                                               ; preds = %58, %55
  %storemerge.in.in = phi ptr [ %6, %55 ], [ %56, %58 ]
  %storemerge.in = load i16, ptr %storemerge.in.in, align 2
  %storemerge = add i16 %storemerge.in, 1
  store i16 %storemerge, ptr %56, align 2
  %.not42 = icmp ugt i16 %storemerge, %.0.i
  br i1 %.not42, label %.loopexit, label %58

58:                                               ; preds = %57
  %59 = zext i16 %storemerge to i64
  %60 = add nsw i64 %59, -1
  %61 = getelementptr inbounds [0 x %struct.ItemIdData], ptr %41, i64 0, i64 %60
  %.val45 = load i32, ptr %61, align 4
  %62 = and i32 %.val45, 32767
  %63 = zext nneg i32 %62 to i64
  %64 = getelementptr inbounds nuw i8, ptr %.0.i.i, i64 %63
  %65 = tail call zeroext i1 @ItemPointerEquals(ptr noundef nonnull %3, ptr noundef %64) #9
  br i1 %65, label %57, label %.loopexit, !llvm.loop !12

66:                                               ; preds = %40
  %67 = add nsw i16 %.0.i, 1
  %68 = getelementptr inbounds nuw i8, ptr %1, i64 6
  store i16 %67, ptr %68, align 2
  br label %.loopexit

.loopexit:                                        ; preds = %57, %58, %.thread, %66
  ret i1 %.not55.not.not.not.not
}